; Function Attrs: nounwind uwtable
define ptr @l_Std_Time_PlainDateTime_nanosecond(ptr noundef readonly captures(none) %0) local_unnamed_addr #1 {
  %2 = getelementptr inbounds nuw i8, ptr %0, i64 16
  %3 = load ptr, ptr %2, align 8, !tbaa !5
  %4 = getelementptr inbounds nuw i8, ptr %3, i64 32
  %5 = load ptr, ptr %4, align 8, !tbaa !5
  %6 = ptrtoint ptr %5 to i64
  %7 = and i64 %6, 1
  %.not = icmp eq i64 %7, 0
  br i1 %.not, label %8, label %lean_inc.exit

8:                                                ; preds = %1
  %.val.i = load i32, ptr %5, align 4, !tbaa !9
  %9 = icmp sgt i32 %.val.i, 0
  br i1 %9, label %10, label %12, !prof !12

10:                                               ; preds = %8
  %11 = add nuw i32 %.val.i, 1
  store i32 %11, ptr %5, align 4, !tbaa !9
  br label %lean_inc.exit

12:                                               ; preds = %8
  %.not.i = icmp eq i32 %.val.i, 0
  br i1 %.not.i, label %lean_inc.exit, label %13

13:                                               ; preds = %12
  tail call void @lean_inc_ref_cold(ptr noundef nonnull %5) #5
  br label %lean_inc.exit

lean_inc.exit:                                    ; preds = %13, %12, %10, %1
  ret ptr %5
}